target datalayout = "e-m:e-p270:32:32-p271:32:32-p272:64:64-i64:64-i128:128-f80:128-n8:16:32:64-S128"
target triple = "x86_64-pc-linux-gnu"

%struct.archive_write = type { %struct.archive, i32, i64, i64, ptr, i64, ptr, ptr, ptr, ptr, ptr, i32, i32, ptr, ptr, ptr, ptr, ptr, ptr, ptr, ptr, ptr, ptr, ptr, ptr, ptr, ptr }
%struct.archive = type { i32, i32, ptr, i32, ptr, i32, i32, ptr, %struct.archive_string, ptr, i32, i32, ptr, ptr, i64, i64, i64, i8, i64 }
%struct.archive_string = type { ptr, i64, i64 }

@.str.1 = private unnamed_addr constant [34 x i8] c"archive_write_get_bytes_per_block\00", align 1

; Function Attrs: nounwind uwtable
define dso_local i32 @archive_write_get_bytes_per_block(ptr noundef %0) #0 {
  %2 = alloca i32, align 4
  %3 = alloca ptr, align 8
  %4 = alloca ptr, align 8
  %5 = alloca i32, align 4
  %6 = alloca i32, align 4
  store ptr %0, ptr %3, align 8, !tbaa !26
  call void @llvm.lifetime.start.p0(i64 8, ptr %4) #9
  %7 = load ptr, ptr %3, align 8, !tbaa !26
  store ptr %7, ptr %4, align 8, !tbaa !4
  br label %8

8:                                                ; preds = %1
  call void @llvm.lifetime.start.p0(i64 4, ptr %5) #9
  %9 = load ptr, ptr %4, align 8, !tbaa !4
  %10 = getelementptr inbounds nuw %struct.archive_write, ptr %9, i32 0, i32 0
  %11 = call i32 @__archive_check_magic(ptr noundef %10, i32 noundef -1329217314, i32 noundef 32767, ptr noundef @.str.1)
  store i32 %11, ptr %5, align 4, !tbaa !28
  %12 = load i32, ptr %5, align 4, !tbaa !28
  %13 = icmp eq i32 %12, -30
  br i1 %13, label %14, label %15

14:                                               ; preds = %8
  store i32 -30, ptr %2, align 4
  store i32 1, ptr %6, align 4
  br label %16

15:                                               ; preds = %8
  store i32 0, ptr %6, align 4
  br label %16

16:                                               ; preds = %15, %14
  call void @llvm.lifetime.end.p0(i64 4, ptr %5) #9
  %17 = load i32, ptr %6, align 4
  switch i32 %17, label %30 [
    i32 0, label %18
  ]

18:                                               ; preds = %16
  br label %19

19:                                               ; preds = %18
  br label %20

20:                                               ; preds = %19
  %21 = load ptr, ptr %4, align 8, !tbaa !4
  %22 = getelementptr inbounds nuw %struct.archive_write, ptr %21, i32 0, i32 11
  %23 = load i32, ptr %22, align 8, !tbaa !21
  %24 = icmp slt i32 %23, 0
  br i1 %24, label %25, label %26

25:                                               ; preds = %20
  store i32 1, ptr %2, align 4
  store i32 1, ptr %6, align 4
  br label %30

26:                                               ; preds = %20
  %27 = load ptr, ptr %4, align 8, !tbaa !4
  %28 = getelementptr inbounds nuw %struct.archive_write, ptr %27, i32 0, i32 11
  %29 = load i32, ptr %28, align 8, !tbaa !21
  store i32 %29, ptr %2, align 4
  store i32 1, ptr %6, align 4
  br label %30

30:                                               ; preds = %26, %25, %16
  call void @llvm.lifetime.end.p0(i64 8, ptr %4) #9
  %31 = load i32, ptr %2, align 4
  ret i32 %31
}