; Function Attrs: nounwind uwtable
define dso_local range(i32 -30, -2147483648) i32 @archive_write_get_bytes_per_block(ptr noundef %0) local_unnamed_addr #3 {
  %2 = tail call i32 @__archive_check_magic(ptr noundef %0, i32 noundef -1329217314, i32 noundef 32767, ptr noundef nonnull @.str.1) #13
  %.not = icmp eq i32 %2, -30
  br i1 %.not, label %7, label %3

3:                                                ; preds = %1
  %4 = getelementptr inbounds nuw i8, ptr %0, i64 224
  %5 = load i32, ptr %4, align 8, !tbaa !19
  %6 = icmp slt i32 %5, 0
  %. = select i1 %6, i32 1, i32 %5
  br label %7

7:                                                ; preds = %3, %1
  %.1 = phi i32 [ -30, %1 ], [ %., %3 ]
  ret i32 %.1
}